; Function Attrs: nounwind uwtable
define hidden ptr @_PyObject_Call(ptr noundef %0, ptr noundef %1, ptr noundef %2, ptr noundef %3) local_unnamed_addr #0 {
  %5 = getelementptr i8, ptr %1, i64 8
  %.val.i.i = load ptr, ptr %5, align 8, !tbaa !20
  %6 = getelementptr i8, ptr %.val.i.i, i64 168
  %.val6.i.i = load i64, ptr %6, align 8, !tbaa !34
  %7 = and i64 %.val6.i.i, 2048
  %.not.i.i = icmp eq i64 %7, 0
  br i1 %.not.i.i, label %PyVectorcall_Function.exit.thread, label %PyVectorcall_Function.exit

PyVectorcall_Function.exit:                       ; preds = %4
  %8 = getelementptr inbounds nuw i8, ptr %.val.i.i, i64 56
  %9 = load i64, ptr %8, align 8, !tbaa !35
  %10 = getelementptr i8, ptr %1, i64 %9
  %.0.copyload.i.i = load ptr, ptr %10, align 1
  %.not = icmp eq ptr %.0.copyload.i.i, null
  br i1 %.not, label %PyVectorcall_Function.exit.thread, label %11

11:                                               ; preds = %PyVectorcall_Function.exit
  %12 = tail call fastcc ptr @_PyVectorcall_Call(ptr noundef %0, ptr noundef %.0.copyload.i.i, ptr noundef nonnull %1, ptr noundef %2, ptr noundef %3)
  br label %26

PyVectorcall_Function.exit.thread:                ; preds = %4, %PyVectorcall_Function.exit
  %13 = getelementptr inbounds nuw i8, ptr %.val.i.i, i64 128
  %14 = load ptr, ptr %13, align 8, !tbaa !43
  %15 = icmp eq ptr %14, null
  br i1 %15, label %16, label %17

16:                                               ; preds = %PyVectorcall_Function.exit.thread
  tail call fastcc void @object_is_not_callable(ptr noundef %0, ptr noundef nonnull %1)
  br label %26

17:                                               ; preds = %PyVectorcall_Function.exit.thread
  %18 = getelementptr inbounds nuw i8, ptr %0, i64 52
  %19 = load i32, ptr %18, align 4, !tbaa !44
  %20 = add i32 %19, -1
  store i32 %20, ptr %18, align 4, !tbaa !44
  %.not.i = icmp sgt i32 %19, -1
  br i1 %.not.i, label %_Py_EnterRecursiveCallTstate.exit.thread, label %_Py_EnterRecursiveCallTstate.exit

_Py_EnterRecursiveCallTstate.exit:                ; preds = %17
  %21 = tail call i32 @_Py_CheckRecursiveCall(ptr noundef nonnull %0, ptr noundef nonnull @.str.6) #10
  %.not27 = icmp eq i32 %21, 0
  br i1 %.not27, label %_Py_EnterRecursiveCallTstate.exit.thread, label %26

_Py_EnterRecursiveCallTstate.exit.thread:         ; preds = %17, %_Py_EnterRecursiveCallTstate.exit
  %22 = tail call ptr %14(ptr noundef nonnull %1, ptr noundef %2, ptr noundef %3) #10
  %23 = load i32, ptr %18, align 4, !tbaa !44
  %24 = add i32 %23, 1
  store i32 %24, ptr %18, align 4, !tbaa !44
  %25 = tail call ptr @_Py_CheckFunctionResult(ptr noundef nonnull %0, ptr noundef nonnull %1, ptr noundef %22, ptr noundef null)
  br label %26

26:                                               ; preds = %_Py_EnterRecursiveCallTstate.exit, %_Py_EnterRecursiveCallTstate.exit.thread, %16, %11
  %.0 = phi ptr [ %12, %11 ], [ null, %16 ], [ %25, %_Py_EnterRecursiveCallTstate.exit.thread ], [ null, %_Py_EnterRecursiveCallTstate.exit ]
  ret ptr %.0
}